target datalayout = "e-m:e-p270:32:32-p271:32:32-p272:64:64-i64:64-i128:128-f80:128-n8:16:32:64-S128"
target triple = "x86_64-pc-linux-gnu"

%class.Node = type <{ ptr, ptr, ptr, i32, i32, i32, i32, i32, i32, i32, [4 x i8] }>
%class.TypeVect = type <{ %class.Type.base, [4 x i8], ptr, i32, [4 x i8] }>
%class.Type.base = type <{ ptr, ptr, i32 }>
%class.Node.base = type <{ ptr, ptr, ptr, i32, i32, i32, i32, i32, i32, i32 }>
%class.TypeNode = type { %class.Node.base, ptr }
%class.VectorBoxNode = type { %class.Node.base, ptr, ptr }
%class.VectorUnboxNode = type <{ %class.VectorNode, i8, [7 x i8] }>
%class.VectorNode = type { %class.TypeNode }
%class.CompilerThread = type { %class.JavaThread, ptr, ptr, ptr, ptr, ptr, ptr, i8, ptr, %class.TimeStamp, ptr }
%class.JavaThread = type { %class.Thread, i8, %class.OopHandle, %class.OopHandle, %class.OopHandle, %class.OopHandle, %class.JavaFrameAnchor, ptr, %struct.JNIEnv_, ptr, ptr, ptr, ptr, ptr, ptr, ptr, ptr, %class.MemRegion, ptr, i8, ptr, ptr, ptr, i32, i32, %"struct.SafepointMechanism::ThreadData", ptr, ptr, i32, i32, i8, i8, i8, i8, i8, i8, i8, i32, i8, i32, i8, i8, i64, %union.anon.31, ptr, ptr, i64, i64, ptr, ptr, %class.StackOverflow, ptr, ptr, ptr, i32, i32, ptr, i32, i32, i32, ptr, ptr, i32, i64, i64, %class.StackWatermarks, %class.HandshakeState, ptr, i32, ptr, i32, i32, ptr, %class.Parker, ptr, ptr, %class.LockStack }
%class.Thread = type { %class.ThreadShadow.base, i64, [43 x i64], ptr, ptr, i32, ptr, i64, i64, %class.ThreadLocalAllocBuffer, i64, %class.ThreadHeapSampler, %class.ThreadStatisticalInfo, %class.JfrThreadLocal, ptr, ptr, ptr, ptr, ptr, ptr, i64, i32, i32, ptr, i32, i32, i32, i32, i8, ptr }
%class.ThreadShadow.base = type <{ ptr, ptr, ptr, i32 }>
%class.ThreadLocalAllocBuffer = type <{ ptr, ptr, ptr, ptr, ptr, i64, i64, i64, i64, i32, i32, i32, i32, i64, %class.AdaptiveWeightedAverage, [4 x i8] }>
%class.AdaptiveWeightedAverage = type { float, i32, i32, i8, float }
%class.ThreadHeapSampler = type { i64 }
%class.ThreadStatisticalInfo = type { i64, i64 }
%class.JfrThreadLocal = type <{ ptr, ptr, ptr, ptr, ptr, ptr, ptr, ptr, ptr, ptr, %class.RefCountHandle, i64, i64, i64, i64, i64, i64, i64, i64, i64, i64, i64, i32, i32, i32, i16, i8, i8, i8, i8, i8, [5 x i8] }>
%class.RefCountHandle = type { ptr }
%class.OopHandle = type { ptr }
%class.JavaFrameAnchor = type { ptr, ptr, ptr }
%struct.JNIEnv_ = type { ptr }
%class.MemRegion = type { ptr, i64 }
%"struct.SafepointMechanism::ThreadData" = type { i64, i64 }
%union.anon.31 = type { ptr }
%class.StackOverflow = type { i32, ptr, ptr, ptr, ptr, ptr, ptr }
%class.StackWatermarks = type { ptr }
%class.HandshakeState = type <{ ptr, %class.FilterQueue, %class.Monitor, ptr, i8, i8, i8, [5 x i8] }>
%class.FilterQueue = type { ptr }
%class.Monitor = type { %class.Mutex }
%class.Mutex = type { ptr, %class.PlatformMonitor, ptr }
%class.PlatformMonitor = type { %class.PlatformMutex, %union.pthread_cond_t }
%class.PlatformMutex = type { %union.pthread_mutex_t }
%union.pthread_mutex_t = type { %struct.__pthread_mutex_s }
%struct.__pthread_mutex_s = type { i32, i32, i32, i32, i32, i16, i16, %struct.__pthread_internal_list }
%struct.__pthread_internal_list = type { ptr, ptr }
%union.pthread_cond_t = type { %struct.__pthread_cond_s }
%struct.__pthread_cond_s = type { %union.__atomic_wide_counter, %union.__atomic_wide_counter, [2 x i32], [2 x i32], i32, i32, [2 x i32] }
%union.__atomic_wide_counter = type { i64 }
%class.Parker = type { %class.PlatformParker }
%class.PlatformParker = type { i32, i32, [1 x %union.pthread_mutex_t], [2 x %union.pthread_cond_t] }
%class.LockStack = type { i32, i64, [8 x ptr] }
%class.TimeStamp = type { i64 }

@EnableVectorReboxing = external global i8, align 1
@_ZN4Type17_const_basic_typeE = external global [20 x ptr], align 16
@_ZN6Thread12_thr_currentE = external thread_local global ptr, align 8
@_ZN5ciEnv24_vector_VectorMask_klassE = external global ptr, align 8
@_ZN5ciEnv27_vector_VectorShuffle_klassE = external global ptr, align 8

; Function Attrs: mustprogress nounwind uwtable
define linkonce_odr hidden noundef ptr @_ZN6Thread15current_or_nullEv() #1 comdat align 2 {
  %1 = call align 8 ptr @llvm.threadlocal.address.p0(ptr align 8 @_ZN6Thread12_thr_currentE)
  %2 = load ptr, ptr %1, align 8
  ret ptr %2
}

; Function Attrs: mustprogress nounwind uwtable
define linkonce_odr hidden noundef ptr @_ZN10JavaThread4castEP6Thread(ptr noundef %0) #1 comdat align 2 {
  %2 = alloca ptr, align 8
  store ptr %0, ptr %2, align 8
  %3 = load ptr, ptr %2, align 8
  ret ptr %3
}

; Function Attrs: mustprogress nounwind uwtable
define linkonce_odr hidden noundef ptr @_ZN6Thread7currentEv() #1 comdat align 2 {
  %1 = alloca ptr, align 8
  %2 = call noundef ptr @_ZN6Thread15current_or_nullEv()
  store ptr %2, ptr %1, align 8
  %3 = load ptr, ptr %1, align 8
  ret ptr %3
}

; Function Attrs: mustprogress nounwind uwtable
define linkonce_odr hidden noundef ptr @_ZN14CompilerThread4castEP6Thread(ptr noundef %0) #1 comdat align 2 {
  %2 = alloca ptr, align 8
  store ptr %0, ptr %2, align 8
  %3 = load ptr, ptr %2, align 8
  ret ptr %3
}

; Function Attrs: mustprogress nounwind uwtable
define linkonce_odr hidden noundef ptr @_ZN10JavaThread7currentEv() #1 comdat align 2 {
  %1 = call noundef ptr @_ZN6Thread7currentEv()
  %2 = call noundef ptr @_ZN10JavaThread4castEP6Thread(ptr noundef %1)
  ret ptr %2
}

; Function Attrs: mustprogress nounwind uwtable
define linkonce_odr hidden noundef ptr @_ZN4Type20get_const_basic_typeE9BasicType(i8 noundef zeroext %0) #1 comdat align 2 {
  %2 = alloca i8, align 1
  store i8 %0, ptr %2, align 1
  %3 = load i8, ptr %2, align 1
  %4 = zext i8 %3 to i64
  %5 = getelementptr inbounds [20 x ptr], ptr @_ZN4Type17_const_basic_typeE, i64 0, i64 %4
  %6 = load ptr, ptr %5, align 8
  ret ptr %6
}

; Function Attrs: mustprogress nounwind uwtable
define linkonce_odr hidden noundef ptr @_ZN14CompilerThread3envEv(ptr noundef nonnull align 8 dereferenceable(1880) %0) #1 comdat align 2 {
  %2 = alloca ptr, align 8
  store ptr %0, ptr %2, align 8
  %3 = load ptr, ptr %2, align 8
  %4 = getelementptr inbounds %class.CompilerThread, ptr %3, i32 0, i32 2
  %5 = load ptr, ptr %4, align 8
  ret ptr %5
}

; Function Attrs: mustprogress nounwind uwtable
define linkonce_odr hidden noundef ptr @_ZN14CompilerThread7currentEv() #1 comdat align 2 {
  %1 = call noundef ptr @_ZN10JavaThread7currentEv()
  %2 = call noundef ptr @_ZN14CompilerThread4castEP6Thread(ptr noundef %1)
  ret ptr %2
}

; Function Attrs: mustprogress nounwind uwtable
define linkonce_odr hidden noundef ptr @_ZN10ciMetadata17as_instance_klassEv(ptr noundef nonnull align 8 dereferenceable(24) %0) #1 comdat align 2 {
  %2 = alloca ptr, align 8
  store ptr %0, ptr %2, align 8
  %3 = load ptr, ptr %2, align 8
  ret ptr %3
}

; Function Attrs: mustprogress nounwind uwtable
define linkonce_odr hidden noundef zeroext i1 @_ZN15VectorUnboxNode20is_shuffle_to_vectorEv(ptr noundef nonnull align 8 dereferenceable(65) %0) #1 comdat align 2 {
  %2 = alloca ptr, align 8
  store ptr %0, ptr %2, align 8
  %3 = load ptr, ptr %2, align 8
  %4 = getelementptr inbounds %class.VectorUnboxNode, ptr %3, i32 0, i32 1
  %5 = load i8, ptr %4, align 8
  %6 = trunc i8 %5 to i1
  ret i1 %6
}

; Function Attrs: mustprogress nounwind uwtable
define linkonce_odr hidden noundef ptr @_ZN8TypeVect8makemaskE9BasicTypej(i8 noundef zeroext %0, i32 noundef %1) #1 comdat align 2 {
  %3 = alloca i8, align 1
  %4 = alloca i32, align 4
  store i8 %0, ptr %3, align 1
  store i32 %1, ptr %4, align 4
  %5 = load i8, ptr %3, align 1
  %6 = call noundef ptr @_ZN4Type20get_const_basic_typeE9BasicType(i8 noundef zeroext %5)
  %7 = load i32, ptr %4, align 4
  %8 = call noundef ptr @_ZN8TypeVect8makemaskEPK4Typej(ptr noundef %6, i32 noundef %7)
  ret ptr %8
}

; Function Attrs: mustprogress nounwind uwtable
define linkonce_odr hidden noundef zeroext i8 @_ZNK8TypeVect18element_basic_typeEv(ptr noundef nonnull align 8 dereferenceable(36) %0) #1 comdat align 2 {
  %2 = alloca ptr, align 8
  store ptr %0, ptr %2, align 8
  %3 = load ptr, ptr %2, align 8
  %4 = getelementptr inbounds %class.TypeVect, ptr %3, i32 0, i32 2
  %5 = load ptr, ptr %4, align 8
  %6 = call noundef zeroext i8 @_ZNK4Type24array_element_basic_typeEv(ptr noundef nonnull align 8 dereferenceable(20) %5)
  ret i8 %6
}

; Function Attrs: mustprogress nounwind uwtable
define linkonce_odr hidden noundef ptr @_ZN5ciEnv26vector_VectorShuffle_klassEv(ptr noundef nonnull align 8 dereferenceable(1265) %0) #1 comdat align 2 {
  %2 = alloca ptr, align 8
  store ptr %0, ptr %2, align 8
  %3 = load ptr, ptr @_ZN5ciEnv27_vector_VectorShuffle_klassE, align 8
  ret ptr %3
}

; Function Attrs: mustprogress nounwind uwtable
define linkonce_odr hidden noundef ptr @_ZN5ciEnv23vector_VectorMask_klassEv(ptr noundef nonnull align 8 dereferenceable(1265) %0) #1 comdat align 2 {
  %2 = alloca ptr, align 8
  store ptr %0, ptr %2, align 8
  %3 = load ptr, ptr @_ZN5ciEnv24_vector_VectorMask_klassE, align 8
  ret ptr %3
}

; Function Attrs: mustprogress nounwind uwtable
define linkonce_odr hidden noundef ptr @_ZN5ciEnv7currentEv() #1 comdat align 2 {
  %1 = call noundef ptr @_ZN14CompilerThread7currentEv()
  %2 = call noundef ptr @_ZN14CompilerThread3envEv(ptr noundef nonnull align 8 dereferenceable(1880) %1)
  ret ptr %2
}

; Function Attrs: mustprogress nounwind uwtable
define linkonce_odr hidden noundef i32 @_ZNK8TypeVect6lengthEv(ptr noundef nonnull align 8 dereferenceable(36) %0) #1 comdat align 2 {
  %2 = alloca ptr, align 8
  store ptr %0, ptr %2, align 8
  %3 = load ptr, ptr %2, align 8
  %4 = getelementptr inbounds %class.TypeVect, ptr %3, i32 0, i32 3
  %5 = load i32, ptr %4, align 8
  ret i32 %5
}

; Function Attrs: mustprogress nounwind uwtable
define linkonce_odr hidden noundef ptr @_ZNK4Type7is_vectEv(ptr noundef nonnull align 8 dereferenceable(20) %0) #1 comdat align 2 {
  %2 = alloca ptr, align 8
  store ptr %0, ptr %2, align 8
  %3 = load ptr, ptr %2, align 8
  ret ptr %3
}

; Function Attrs: mustprogress nounwind uwtable
define linkonce_odr hidden noundef ptr @_ZNK8TypeNode4typeEv(ptr noundef nonnull align 8 dereferenceable(64) %0) #1 comdat align 2 {
  %2 = alloca ptr, align 8
  store ptr %0, ptr %2, align 8
  %3 = load ptr, ptr %2, align 8
  %4 = getelementptr inbounds %class.TypeNode, ptr %3, i32 0, i32 1
  %5 = load ptr, ptr %4, align 8
  ret ptr %5
}

; Function Attrs: mustprogress nounwind uwtable
define linkonce_odr hidden noundef ptr @_ZNK13VectorBoxNode8vec_typeEv(ptr noundef nonnull align 8 dereferenceable(72) %0) #1 comdat align 2 {
  %2 = alloca ptr, align 8
  store ptr %0, ptr %2, align 8
  %3 = load ptr, ptr %2, align 8
  %4 = getelementptr inbounds %class.VectorBoxNode, ptr %3, i32 0, i32 2
  %5 = load ptr, ptr %4, align 8
  ret ptr %5
}

; Function Attrs: mustprogress nounwind uwtable
define linkonce_odr hidden noundef ptr @_ZNK11TypeInstPtr14instance_klassEv(ptr noundef nonnull align 8 dereferenceable(80) %0) #1 comdat align 2 {
  %2 = alloca ptr, align 8
  store ptr %0, ptr %2, align 8
  %3 = load ptr, ptr %2, align 8
  %4 = load ptr, ptr %3, align 8
  %5 = getelementptr inbounds ptr, ptr %4, i64 29
  %6 = load ptr, ptr %5, align 8
  %7 = call noundef ptr %6(ptr noundef nonnull align 8 dereferenceable(80) %3)
  %8 = call noundef ptr @_ZN10ciMetadata17as_instance_klassEv(ptr noundef nonnull align 8 dereferenceable(24) %7)
  ret ptr %8
}

; Function Attrs: mustprogress nounwind uwtable
define linkonce_odr hidden noundef ptr @_ZNK13VectorBoxNode8box_typeEv(ptr noundef nonnull align 8 dereferenceable(72) %0) #1 comdat align 2 {
  %2 = alloca ptr, align 8
  store ptr %0, ptr %2, align 8
  %3 = load ptr, ptr %2, align 8
  %4 = getelementptr inbounds %class.VectorBoxNode, ptr %3, i32 0, i32 1
  %5 = load ptr, ptr %4, align 8
  ret ptr %5
}

; Function Attrs: mustprogress nounwind uwtable
define linkonce_odr hidden noundef ptr @_ZNK4Node2inEj(ptr noundef nonnull align 8 dereferenceable(52) %0, i32 noundef %1) #1 comdat align 2 {
  %3 = alloca ptr, align 8
  %4 = alloca i32, align 4
  store ptr %0, ptr %3, align 8
  store i32 %1, ptr %4, align 4
  %5 = load ptr, ptr %3, align 8
  %6 = getelementptr inbounds %class.Node, ptr %5, i32 0, i32 1
  %7 = load ptr, ptr %6, align 8
  %8 = load i32, ptr %4, align 4
  %9 = zext i32 %8 to i64
  %10 = getelementptr inbounds ptr, ptr %7, i64 %9
  %11 = load ptr, ptr %10, align 8
  ret ptr %11
}

; Function Attrs: mustprogress nounwind uwtable
define linkonce_odr hidden noundef ptr @_ZNK15VectorUnboxNode3objEv(ptr noundef nonnull align 8 dereferenceable(65) %0) #1 comdat align 2 {
  %2 = alloca ptr, align 8
  store ptr %0, ptr %2, align 8
  %3 = load ptr, ptr %2, align 8
  %4 = call noundef ptr @_ZNK4Node2inEj(ptr noundef nonnull align 8 dereferenceable(52) %3, i32 noundef 2)
  ret ptr %4
}

; Function Attrs: mustprogress nounwind uwtable
define hidden noundef ptr @_ZN15VectorUnboxNode5IdealEP8PhaseGVNb(ptr noundef nonnull align 8 dereferenceable(65) %0, ptr noundef %1, i1 noundef zeroext %2) unnamed_addr #1 align 2 {
  %4 = alloca ptr, align 8
  %5 = alloca ptr, align 8
  %6 = alloca ptr, align 8
  %7 = alloca i8, align 1
  %8 = alloca ptr, align 8
  %9 = alloca ptr, align 8
  %10 = alloca ptr, align 8
  %11 = alloca ptr, align 8
  %12 = alloca ptr, align 8
  %13 = alloca ptr, align 8
  %14 = alloca i8, align 1
  %15 = alloca i8, align 1
  %16 = alloca ptr, align 8
  store ptr %0, ptr %5, align 8
  store ptr %1, ptr %6, align 8
  %17 = zext i1 %2 to i8
  store i8 %17, ptr %7, align 1
  %18 = load ptr, ptr %5, align 8
  %19 = call noundef ptr @_ZNK15VectorUnboxNode3objEv(ptr noundef nonnull align 8 dereferenceable(65) %18)
  %20 = call noundef ptr @_ZNK4Node6uncastEb(ptr noundef nonnull align 8 dereferenceable(52) %19, i1 noundef zeroext false)
  store ptr %20, ptr %8, align 8
  %21 = load i8, ptr @EnableVectorReboxing, align 1
  %22 = trunc i8 %21 to i1
  br i1 %22, label %23, label %105

23:                                               ; preds = %3
  %24 = load ptr, ptr %8, align 8
  %25 = load ptr, ptr %24, align 8
  %26 = getelementptr inbounds ptr, ptr %25, i64 0
  %27 = load ptr, ptr %26, align 8
  %28 = call noundef i32 %27(ptr noundef nonnull align 8 dereferenceable(52) %24)
  %29 = icmp eq i32 %28, 468
  br i1 %29, label %30, label %105

30:                                               ; preds = %23
  %31 = load ptr, ptr %18, align 8
  %32 = getelementptr inbounds ptr, ptr %31, i64 5
  %33 = load ptr, ptr %32, align 8
  %34 = call noundef ptr %33(ptr noundef nonnull align 8 dereferenceable(64) %18)
  %35 = load ptr, ptr %8, align 8
  %36 = call noundef ptr @_ZNK4Node2inEj(ptr noundef nonnull align 8 dereferenceable(52) %35, i32 noundef 2)
  %37 = load ptr, ptr %36, align 8
  %38 = getelementptr inbounds ptr, ptr %37, i64 5
  %39 = load ptr, ptr %38, align 8
  %40 = call noundef ptr %39(ptr noundef nonnull align 8 dereferenceable(52) %36)
  %41 = call noundef zeroext i1 @_ZN4Type6equalsEPKS_S1_(ptr noundef %34, ptr noundef %40)
  br i1 %41, label %42, label %43

42:                                               ; preds = %30
  br label %104

43:                                               ; preds = %30
  %44 = load ptr, ptr %8, align 8
  store ptr %44, ptr %9, align 8
  %45 = load ptr, ptr %9, align 8
  %46 = call noundef ptr @_ZNK13VectorBoxNode8box_typeEv(ptr noundef nonnull align 8 dereferenceable(72) %45)
  %47 = call noundef ptr @_ZNK11TypeInstPtr14instance_klassEv(ptr noundef nonnull align 8 dereferenceable(80) %46)
  store ptr %47, ptr %10, align 8
  %48 = load ptr, ptr %9, align 8
  %49 = call noundef ptr @_ZNK13VectorBoxNode8vec_typeEv(ptr noundef nonnull align 8 dereferenceable(72) %48)
  store ptr %49, ptr %11, align 8
  %50 = call noundef ptr @_ZNK8TypeNode4typeEv(ptr noundef nonnull align 8 dereferenceable(64) %18)
  %51 = call noundef ptr @_ZNK4Type7is_vectEv(ptr noundef nonnull align 8 dereferenceable(20) %50)
  store ptr %51, ptr %12, align 8
  %52 = load ptr, ptr %11, align 8
  %53 = call noundef i32 @_ZNK8TypeVect6lengthEv(ptr noundef nonnull align 8 dereferenceable(36) %52)
  %54 = load ptr, ptr %12, align 8
  %55 = call noundef i32 @_ZNK8TypeVect6lengthEv(ptr noundef nonnull align 8 dereferenceable(36) %54)
  %56 = icmp eq i32 %53, %55
  br i1 %56, label %57, label %102

57:                                               ; preds = %43
  %58 = load ptr, ptr %9, align 8
  %59 = call noundef ptr @_ZNK4Node2inEj(ptr noundef nonnull align 8 dereferenceable(52) %58, i32 noundef 2)
  store ptr %59, ptr %13, align 8
  %60 = load ptr, ptr %10, align 8
  %61 = call noundef ptr @_ZN5ciEnv7currentEv()
  %62 = call noundef ptr @_ZN5ciEnv23vector_VectorMask_klassEv(ptr noundef nonnull align 8 dereferenceable(1265) %61)
  %63 = call noundef zeroext i1 @_ZN7ciKlass14is_subclass_ofEPS_(ptr noundef nonnull align 8 dereferenceable(44) %60, ptr noundef %62)
  %64 = zext i1 %63 to i8
  store i8 %64, ptr %14, align 1
  %65 = load ptr, ptr %10, align 8
  %66 = call noundef ptr @_ZN5ciEnv7currentEv()
  %67 = call noundef ptr @_ZN5ciEnv26vector_VectorShuffle_klassEv(ptr noundef nonnull align 8 dereferenceable(1265) %66)
  %68 = call noundef zeroext i1 @_ZN7ciKlass14is_subclass_ofEPS_(ptr noundef nonnull align 8 dereferenceable(44) %65, ptr noundef %67)
  %69 = zext i1 %68 to i8
  store i8 %69, ptr %15, align 1
  %70 = load i8, ptr %14, align 1
  %71 = trunc i8 %70 to i1
  br i1 %71, label %72, label %85

72:                                               ; preds = %57
  %73 = load ptr, ptr %12, align 8
  %74 = call noundef zeroext i8 @_ZNK8TypeVect18element_basic_typeEv(ptr noundef nonnull align 8 dereferenceable(36) %73)
  %75 = load ptr, ptr %12, align 8
  %76 = call noundef i32 @_ZNK8TypeVect6lengthEv(ptr noundef nonnull align 8 dereferenceable(36) %75)
  %77 = call noundef ptr @_ZN8TypeVect8makemaskE9BasicTypej(i8 noundef zeroext %74, i32 noundef %76)
  store ptr %77, ptr %16, align 8
  %78 = call noundef ptr @_ZN4NodenwEm(i64 noundef 64) #6
  %79 = icmp eq ptr %78, null
  br i1 %79, label %83, label %80

80:                                               ; preds = %72
  %81 = load ptr, ptr %13, align 8
  %82 = load ptr, ptr %16, align 8
  call void @_ZN18VectorMaskCastNodeC2EP4NodePK8TypeVect(ptr noundef nonnull align 8 dereferenceable(64) %78, ptr noundef %81, ptr noundef %82)
  br label %83

83:                                               ; preds = %80, %72
  %84 = phi ptr [ %78, %80 ], [ null, %72 ]
  store ptr %84, ptr %4, align 8
  br label %106

85:                                               ; preds = %57
  %86 = load i8, ptr %15, align 1
  %87 = trunc i8 %86 to i1
  br i1 %87, label %88, label %99

88:                                               ; preds = %85
  %89 = call noundef zeroext i1 @_ZN15VectorUnboxNode20is_shuffle_to_vectorEv(ptr noundef nonnull align 8 dereferenceable(65) %18)
  br i1 %89, label %98, label %90

90:                                               ; preds = %88
  %91 = call noundef ptr @_ZN4NodenwEm(i64 noundef 64) #6
  %92 = icmp eq ptr %91, null
  br i1 %92, label %96, label %93

93:                                               ; preds = %90
  %94 = load ptr, ptr %13, align 8
  %95 = load ptr, ptr %12, align 8
  call void @_ZN21VectorLoadShuffleNodeC2EP4NodePK8TypeVect(ptr noundef nonnull align 8 dereferenceable(64) %91, ptr noundef %94, ptr noundef %95)
  br label %96

96:                                               ; preds = %93, %90
  %97 = phi ptr [ %91, %93 ], [ null, %90 ]
  store ptr %97, ptr %4, align 8
  br label %106

98:                                               ; preds = %88
  br label %100

99:                                               ; preds = %85
  br label %100

100:                                              ; preds = %99, %98
  br label %101

101:                                              ; preds = %100
  br label %103

102:                                              ; preds = %43
  br label %103

103:                                              ; preds = %102, %101
  br label %104

104:                                              ; preds = %103, %42
  br label %105

105:                                              ; preds = %104, %23, %3
  store ptr null, ptr %4, align 8
  br label %106

106:                                              ; preds = %105, %96, %83
  %107 = load ptr, ptr %4, align 8
  ret ptr %107
}