; Function Attrs: mustprogress nounwind uwtable
define hidden noundef ptr @_ZN15VectorUnboxNode5IdealEP8PhaseGVNb(ptr noundef nonnull align 8 dereferenceable(65) %0, ptr nocapture noundef readnone %1, i1 noundef zeroext %2) unnamed_addr #1 align 2 {
  %4 = getelementptr inbounds i8, ptr %0, i64 8
  %5 = load ptr, ptr %4, align 8
  %6 = getelementptr inbounds i8, ptr %5, i64 16
  %7 = load ptr, ptr %6, align 8
  %8 = tail call noundef ptr @_ZNK4Node6uncastEb(ptr noundef nonnull align 8 dereferenceable(52) %7, i1 noundef zeroext false) #8
  %9 = load i8, ptr @EnableVectorReboxing, align 1
  %10 = trunc i8 %9 to i1
  br i1 %10, label %11, label %93

11:                                               ; preds = %3
  %12 = load ptr, ptr %8, align 8
  %13 = load ptr, ptr %12, align 8
  %14 = tail call noundef i32 %13(ptr noundef nonnull align 8 dereferenceable(52) %8) #8
  %15 = icmp eq i32 %14, 468
  br i1 %15, label %16, label %93

16:                                               ; preds = %11
  %17 = load ptr, ptr %0, align 8
  %18 = getelementptr inbounds i8, ptr %17, i64 40
  %19 = load ptr, ptr %18, align 8
  %20 = tail call noundef ptr %19(ptr noundef nonnull align 8 dereferenceable(64) %0) #8
  %21 = getelementptr inbounds i8, ptr %8, i64 8
  %22 = load ptr, ptr %21, align 8
  %23 = getelementptr inbounds i8, ptr %22, i64 16
  %24 = load ptr, ptr %23, align 8
  %25 = load ptr, ptr %24, align 8
  %26 = getelementptr inbounds i8, ptr %25, i64 40
  %27 = load ptr, ptr %26, align 8
  %28 = tail call noundef ptr %27(ptr noundef nonnull align 8 dereferenceable(52) %24) #8
  %29 = tail call noundef zeroext i1 @_ZN4Type6equalsEPKS_S1_(ptr noundef %20, ptr noundef %28) #8
  br i1 %29, label %93, label %30

30:                                               ; preds = %16
  %31 = getelementptr inbounds i8, ptr %8, i64 56
  %32 = load ptr, ptr %31, align 8
  %33 = load ptr, ptr %32, align 8
  %34 = getelementptr inbounds i8, ptr %33, i64 232
  %35 = load ptr, ptr %34, align 8
  %36 = tail call noundef ptr %35(ptr noundef nonnull align 8 dereferenceable(80) %32) #8
  %37 = getelementptr inbounds i8, ptr %8, i64 64
  %38 = load ptr, ptr %37, align 8
  %39 = getelementptr inbounds i8, ptr %0, i64 56
  %40 = load ptr, ptr %39, align 8
  %41 = getelementptr inbounds i8, ptr %38, i64 32
  %42 = load i32, ptr %41, align 8
  %43 = getelementptr inbounds i8, ptr %40, i64 32
  %44 = load i32, ptr %43, align 8
  %45 = icmp eq i32 %42, %44
  br i1 %45, label %46, label %93

46:                                               ; preds = %30
  %47 = load ptr, ptr %21, align 8
  %48 = getelementptr inbounds i8, ptr %47, i64 16
  %49 = load ptr, ptr %48, align 8
  %50 = load ptr, ptr @_ZN5ciEnv24_vector_VectorMask_klassE, align 8
  %51 = tail call noundef zeroext i1 @_ZN7ciKlass14is_subclass_ofEPS_(ptr noundef nonnull align 8 dereferenceable(44) %36, ptr noundef %50) #8
  %52 = load ptr, ptr @_ZN5ciEnv27_vector_VectorShuffle_klassE, align 8
  %53 = tail call noundef zeroext i1 @_ZN7ciKlass14is_subclass_ofEPS_(ptr noundef nonnull align 8 dereferenceable(44) %36, ptr noundef %52) #8
  br i1 %51, label %54, label %84

54:                                               ; preds = %46
  %55 = tail call align 8 ptr @llvm.threadlocal.address.p0(ptr align 8 @_ZN6Thread12_thr_currentE)
  %56 = getelementptr inbounds i8, ptr %40, i64 24
  %57 = load ptr, ptr %56, align 8
  %58 = tail call noundef zeroext i8 @_ZNK4Type24array_element_basic_typeEv(ptr noundef nonnull align 8 dereferenceable(20) %57) #8
  %59 = load i32, ptr %43, align 8
  %60 = zext i8 %58 to i64
  %61 = getelementptr inbounds [20 x ptr], ptr @_ZN4Type17_const_basic_typeE, i64 0, i64 %60
  %62 = load ptr, ptr %61, align 8
  %63 = tail call noundef ptr @_ZN8TypeVect8makemaskEPK4Typej(ptr noundef %62, i32 noundef %59) #8
  %64 = load ptr, ptr %55, align 8
  %65 = getelementptr inbounds i8, ptr %64, i64 1808
  %66 = load ptr, ptr %65, align 8
  %67 = getelementptr inbounds i8, ptr %66, i64 128
  %68 = load ptr, ptr %67, align 8
  %69 = getelementptr inbounds i8, ptr %68, i64 728
  %70 = load ptr, ptr %69, align 8
  %71 = getelementptr inbounds i8, ptr %70, i64 40
  %72 = load ptr, ptr %71, align 8
  %73 = getelementptr inbounds i8, ptr %70, i64 32
  %74 = load ptr, ptr %73, align 8
  %75 = ptrtoint ptr %72 to i64
  %76 = ptrtoint ptr %74 to i64
  %77 = sub i64 %75, %76
  %.not.i.i.i = icmp ult i64 %77, 64
  br i1 %.not.i.i.i, label %80, label %78

78:                                               ; preds = %54
  %79 = getelementptr inbounds i8, ptr %74, i64 64
  store ptr %79, ptr %73, align 8
  br label %_ZN4NodenwEm.exit

80:                                               ; preds = %54
  %81 = tail call noundef ptr @_ZN5Arena4growEmN17AllocFailStrategy13AllocFailEnumE(ptr noundef nonnull align 8 dereferenceable(48) %70, i64 noundef 64, i32 noundef 0) #8
  br label %_ZN4NodenwEm.exit

_ZN4NodenwEm.exit:                                ; preds = %78, %80
  %.0.i.i.i = phi ptr [ %74, %78 ], [ %81, %80 ]
  %82 = icmp eq ptr %.0.i.i.i, null
  br i1 %82, label %93, label %83

83:                                               ; preds = %_ZN4NodenwEm.exit
  tail call void @_ZN18VectorMaskCastNodeC2EP4NodePK8TypeVect(ptr noundef nonnull align 8 dereferenceable(64) %.0.i.i.i, ptr noundef %49, ptr noundef %63)
  br label %93

84:                                               ; preds = %46
  br i1 %53, label %85, label %93

85:                                               ; preds = %84
  %86 = getelementptr inbounds i8, ptr %0, i64 64
  %87 = load i8, ptr %86, align 8
  %88 = trunc i8 %87 to i1
  br i1 %88, label %93, label %89

89:                                               ; preds = %85
  %90 = tail call noundef ptr @_ZN4NodenwEm(i64 noundef 64) #8
  %91 = icmp eq ptr %90, null
  br i1 %91, label %93, label %92

92:                                               ; preds = %89
  tail call void @_ZN21VectorLoadShuffleNodeC2EP4NodePK8TypeVect(ptr noundef nonnull align 8 dereferenceable(64) %90, ptr noundef %49, ptr noundef nonnull %40)
  br label %93

93:                                               ; preds = %3, %11, %85, %84, %30, %16, %89, %92, %_ZN4NodenwEm.exit, %83
  %.0 = phi ptr [ %.0.i.i.i, %83 ], [ null, %_ZN4NodenwEm.exit ], [ %90, %92 ], [ null, %89 ], [ null, %16 ], [ null, %30 ], [ null, %84 ], [ null, %85 ], [ null, %11 ], [ null, %3 ]
  ret ptr %.0
}